target datalayout = "e-m:e-p270:32:32-p271:32:32-p272:64:64-i64:64-i128:128-f80:128-n8:16:32:64-S128"
target triple = "x86_64-pc-linux-gnu"

%"class.icu_77::GregorianCalendar" = type <{ %"class.icu_77::Calendar", double, i32, [4 x i8], double, i32, i8, i8, [2 x i8] }>
%"class.icu_77::Calendar" = type <{ %"class.icu_77::UObject", [24 x i32], [24 x i8], i8, [7 x i8], double, ptr, i8, i16, i8, i32, i32, i32, i8, i8, i16, [4 x i8], ptr, ptr }>
%"class.icu_77::UObject" = type { ptr }

@_ZL12kLeapNumDays = internal constant [12 x i16] [i16 0, i16 31, i16 60, i16 91, i16 121, i16 152, i16 182, i16 213, i16 244, i16 274, i16 305, i16 335], align 16
@_ZL8kNumDays = internal constant [12 x i16] [i16 0, i16 31, i16 59, i16 90, i16 120, i16 151, i16 181, i16 212, i16 243, i16 273, i16 304, i16 334], align 16

; Function Attrs: inlinehint mustprogress uwtable
define linkonce_odr noundef i32 @_ZN6icu_775Grego14gregorianShiftEi(i32 noundef %0) #6 comdat align 2 {
  %2 = alloca i32, align 4
  %3 = alloca i64, align 8
  %4 = alloca i64, align 8
  store i32 %0, ptr %2, align 4, !tbaa !31
  call void @llvm.lifetime.start.p0(i64 8, ptr %3) #10
  %5 = load i32, ptr %2, align 4, !tbaa !31
  %6 = sext i32 %5 to i64
  %7 = sub nsw i64 %6, 1
  store i64 %7, ptr %3, align 8, !tbaa !43
  call void @llvm.lifetime.start.p0(i64 8, ptr %4) #10
  %8 = load i64, ptr %3, align 8, !tbaa !43
  %9 = call noundef i64 @_ZN6icu_779ClockMath16floorDivideInt64Ell(i64 noundef %8, i64 noundef 400)
  %10 = load i64, ptr %3, align 8, !tbaa !43
  %11 = call noundef i64 @_ZN6icu_779ClockMath16floorDivideInt64Ell(i64 noundef %10, i64 noundef 100)
  %12 = sub nsw i64 %9, %11
  %13 = add nsw i64 %12, 2
  store i64 %13, ptr %4, align 8, !tbaa !43
  %14 = load i64, ptr %4, align 8, !tbaa !43
  %15 = trunc i64 %14 to i32
  call void @llvm.lifetime.end.p0(i64 8, ptr %4) #10
  call void @llvm.lifetime.end.p0(i64 8, ptr %3) #10
  ret i32 %15
}

; Function Attrs: inlinehint mustprogress nounwind uwtable
define internal noundef signext i8 @_ZL9U_FAILURE10UErrorCode(i32 noundef %0) #4 {
  %2 = alloca i32, align 4
  store i32 %0, ptr %2, align 4, !tbaa !35
  %3 = load i32, ptr %2, align 4, !tbaa !35
  %4 = icmp sgt i32 %3, 0
  %5 = zext i1 %4 to i8
  ret i8 %5
}

; Function Attrs: mustprogress uwtable
define noundef i64 @_ZNK6icu_7717GregorianCalendar23handleComputeMonthStartEiiaR10UErrorCode(ptr noundef nonnull align 8 dereferenceable(222) %0, i32 noundef %1, i32 noundef %2, i8 noundef signext %3, ptr noundef nonnull align 4 dereferenceable(4) %4) unnamed_addr #1 align 2 {
  %6 = alloca i64, align 8
  %7 = alloca ptr, align 8
  %8 = alloca i32, align 4
  %9 = alloca i32, align 4
  %10 = alloca i8, align 1
  %11 = alloca ptr, align 8
  %12 = alloca ptr, align 8
  %13 = alloca i32, align 4
  %14 = alloca i8, align 1
  %15 = alloca i64, align 8
  %16 = alloca i64, align 8
  %17 = alloca i32, align 4
  store ptr %0, ptr %7, align 8, !tbaa !3
  store i32 %1, ptr %8, align 4, !tbaa !31
  store i32 %2, ptr %9, align 4, !tbaa !31
  store i8 %3, ptr %10, align 1, !tbaa !37
  store ptr %4, ptr %11, align 8, !tbaa !8
  %18 = load ptr, ptr %7, align 8
  %19 = load ptr, ptr %11, align 8, !tbaa !8
  %20 = load i32, ptr %19, align 4, !tbaa !35
  %21 = call noundef signext i8 @_ZL9U_FAILURE10UErrorCode(i32 noundef %20)
  %22 = icmp ne i8 %21, 0
  br i1 %22, label %23, label %24

23:                                               ; preds = %5
  store i64 0, ptr %6, align 8
  br label %122

24:                                               ; preds = %5
  call void @llvm.lifetime.start.p0(i64 8, ptr %12) #10
  store ptr %18, ptr %12, align 8, !tbaa !3
  %25 = load i32, ptr %9, align 4, !tbaa !31
  %26 = icmp slt i32 %25, 0
  br i1 %26, label %30, label %27

27:                                               ; preds = %24
  %28 = load i32, ptr %9, align 4, !tbaa !31
  %29 = icmp sgt i32 %28, 11
  br i1 %29, label %30, label %39

30:                                               ; preds = %27, %24
  %31 = load i32, ptr %9, align 4, !tbaa !31
  %32 = call noundef i32 @_ZN6icu_779ClockMath11floorDivideEiiPi(i32 noundef %31, i32 noundef 12, ptr noundef %9)
  %33 = load i32, ptr %8, align 4, !tbaa !31
  %34 = call signext i8 @uprv_add32_overflow_77(i32 noundef %32, i32 noundef %33, ptr noundef %8)
  %35 = icmp ne i8 %34, 0
  br i1 %35, label %36, label %38

36:                                               ; preds = %30
  %37 = load ptr, ptr %11, align 8, !tbaa !8
  store i32 1, ptr %37, align 4, !tbaa !35
  store i64 0, ptr %6, align 8
  store i32 1, ptr %13, align 4
  br label %121

38:                                               ; preds = %30
  br label %39

39:                                               ; preds = %38, %27
  call void @llvm.lifetime.start.p0(i64 1, ptr %14) #10
  %40 = load i32, ptr %8, align 4, !tbaa !31
  %41 = srem i32 %40, 4
  %42 = icmp eq i32 %41, 0
  %43 = zext i1 %42 to i8
  store i8 %43, ptr %14, align 1, !tbaa !37
  call void @llvm.lifetime.start.p0(i64 8, ptr %15) #10
  %44 = load i32, ptr %8, align 4, !tbaa !31
  %45 = sext i32 %44 to i64
  %46 = sub nsw i64 %45, 1
  store i64 %46, ptr %15, align 8, !tbaa !43
  call void @llvm.lifetime.start.p0(i64 8, ptr %16) #10
  %47 = load i64, ptr %15, align 8, !tbaa !43
  %48 = mul nsw i64 365, %47
  %49 = load i64, ptr %15, align 8, !tbaa !43
  %50 = call noundef i64 @_ZN6icu_779ClockMath16floorDivideInt64Ell(i64 noundef %49, i64 noundef 4)
  %51 = add nsw i64 %48, %50
  %52 = add nsw i64 %51, 1721426
  %53 = sub nsw i64 %52, 3
  store i64 %53, ptr %16, align 8, !tbaa !43
  %54 = load i32, ptr %8, align 4, !tbaa !31
  %55 = getelementptr inbounds nuw %"class.icu_77::GregorianCalendar", ptr %18, i32 0, i32 5
  %56 = load i32, ptr %55, align 8, !tbaa !25
  %57 = icmp sge i32 %54, %56
  %58 = zext i1 %57 to i8
  %59 = load ptr, ptr %12, align 8, !tbaa !3
  %60 = getelementptr inbounds nuw %"class.icu_77::GregorianCalendar", ptr %59, i32 0, i32 6
  store i8 %58, ptr %60, align 4, !tbaa !26
  %61 = getelementptr inbounds nuw %"class.icu_77::GregorianCalendar", ptr %18, i32 0, i32 7
  %62 = load i8, ptr %61, align 1, !tbaa !27
  %63 = icmp ne i8 %62, 0
  br i1 %63, label %64, label %72

64:                                               ; preds = %39
  %65 = getelementptr inbounds nuw %"class.icu_77::GregorianCalendar", ptr %18, i32 0, i32 6
  %66 = load i8, ptr %65, align 4, !tbaa !26
  %67 = icmp ne i8 %66, 0
  %68 = xor i1 %67, true
  %69 = zext i1 %68 to i8
  %70 = load ptr, ptr %12, align 8, !tbaa !3
  %71 = getelementptr inbounds nuw %"class.icu_77::GregorianCalendar", ptr %70, i32 0, i32 6
  store i8 %69, ptr %71, align 4, !tbaa !26
  br label %72

72:                                               ; preds = %64, %39
  %73 = getelementptr inbounds nuw %"class.icu_77::GregorianCalendar", ptr %18, i32 0, i32 6
  %74 = load i8, ptr %73, align 4, !tbaa !26
  %75 = icmp ne i8 %74, 0
  br i1 %75, label %76, label %98

76:                                               ; preds = %72
  %77 = load i8, ptr %14, align 1, !tbaa !37
  %78 = icmp ne i8 %77, 0
  br i1 %78, label %79, label %89

79:                                               ; preds = %76
  %80 = load i32, ptr %8, align 4, !tbaa !31
  %81 = srem i32 %80, 100
  %82 = icmp ne i32 %81, 0
  br i1 %82, label %87, label %83

83:                                               ; preds = %79
  %84 = load i32, ptr %8, align 4, !tbaa !31
  %85 = srem i32 %84, 400
  %86 = icmp eq i32 %85, 0
  br label %87

87:                                               ; preds = %83, %79
  %88 = phi i1 [ true, %79 ], [ %86, %83 ]
  br label %89

89:                                               ; preds = %87, %76
  %90 = phi i1 [ false, %76 ], [ %88, %87 ]
  %91 = zext i1 %90 to i8
  store i8 %91, ptr %14, align 1, !tbaa !37
  call void @llvm.lifetime.start.p0(i64 4, ptr %17) #10
  %92 = load i32, ptr %8, align 4, !tbaa !31
  %93 = call noundef i32 @_ZN6icu_775Grego14gregorianShiftEi(i32 noundef %92)
  store i32 %93, ptr %17, align 4, !tbaa !31
  %94 = load i32, ptr %17, align 4, !tbaa !31
  %95 = sext i32 %94 to i64
  %96 = load i64, ptr %16, align 8, !tbaa !43
  %97 = add nsw i64 %96, %95
  store i64 %97, ptr %16, align 8, !tbaa !43
  call void @llvm.lifetime.end.p0(i64 4, ptr %17) #10
  br label %98

98:                                               ; preds = %89, %72
  %99 = load i32, ptr %9, align 4, !tbaa !31
  %100 = icmp ne i32 %99, 0
  br i1 %100, label %101, label %119

101:                                              ; preds = %98
  %102 = load i8, ptr %14, align 1, !tbaa !37
  %103 = icmp ne i8 %102, 0
  br i1 %103, label %104, label %109

104:                                              ; preds = %101
  %105 = load i32, ptr %9, align 4, !tbaa !31
  %106 = sext i32 %105 to i64
  %107 = getelementptr inbounds [12 x i16], ptr @_ZL12kLeapNumDays, i64 0, i64 %106
  %108 = load i16, ptr %107, align 2, !tbaa !38
  br label %114

109:                                              ; preds = %101
  %110 = load i32, ptr %9, align 4, !tbaa !31
  %111 = sext i32 %110 to i64
  %112 = getelementptr inbounds [12 x i16], ptr @_ZL8kNumDays, i64 0, i64 %111
  %113 = load i16, ptr %112, align 2, !tbaa !38
  br label %114

114:                                              ; preds = %109, %104
  %115 = phi i16 [ %108, %104 ], [ %113, %109 ]
  %116 = sext i16 %115 to i64
  %117 = load i64, ptr %16, align 8, !tbaa !43
  %118 = add nsw i64 %117, %116
  store i64 %118, ptr %16, align 8, !tbaa !43
  br label %119

119:                                              ; preds = %114, %98
  %120 = load i64, ptr %16, align 8, !tbaa !43
  store i64 %120, ptr %6, align 8
  store i32 1, ptr %13, align 4
  call void @llvm.lifetime.end.p0(i64 8, ptr %16) #10
  call void @llvm.lifetime.end.p0(i64 8, ptr %15) #10
  call void @llvm.lifetime.end.p0(i64 1, ptr %14) #10
  br label %121

121:                                              ; preds = %119, %36
  call void @llvm.lifetime.end.p0(i64 8, ptr %12) #10
  br label %122

122:                                              ; preds = %121, %23
  %123 = load i64, ptr %6, align 8
  ret i64 %123
}