; Function Attrs: mustprogress uwtable
define noundef i64 @_ZNK6icu_7717GregorianCalendar23handleComputeMonthStartEiiaR10UErrorCode(ptr noundef nonnull align 8 captures(none) dereferenceable(222) %0, i32 noundef %1, i32 noundef %2, i8 signext %3, ptr noundef nonnull align 4 captures(none) dereferenceable(4) %4) unnamed_addr #1 align 2 {
  %6 = alloca i32, align 4
  %7 = alloca i32, align 4
  store i32 %1, ptr %6, align 4, !tbaa !32
  store i32 %2, ptr %7, align 4, !tbaa !32
  %8 = load i32, ptr %4, align 4, !tbaa !25
  %9 = icmp slt i32 %8, 1
  br i1 %9, label %10, label %63

10:                                               ; preds = %5
  %or.cond = icmp ugt i32 %2, 11
  br i1 %or.cond, label %11, label %15

11:                                               ; preds = %10
  %12 = call noundef i32 @_ZN6icu_779ClockMath11floorDivideEiiPi(i32 noundef %2, i32 noundef 12, ptr noundef nonnull %7)
  %13 = call signext i8 @uprv_add32_overflow_77(i32 noundef %12, i32 noundef %1, ptr noundef nonnull %6)
  %.not18 = icmp eq i8 %13, 0
  br i1 %.not18, label %._crit_edge, label %14

._crit_edge:                                      ; preds = %11
  %.pre = load i32, ptr %6, align 4, !tbaa !32
  br label %15

14:                                               ; preds = %11
  store i32 1, ptr %4, align 4, !tbaa !25
  br label %63

15:                                               ; preds = %._crit_edge, %10
  %16 = phi i32 [ %.pre, %._crit_edge ], [ %1, %10 ]
  %17 = and i32 %16, 3
  %18 = icmp ne i32 %17, 0
  %19 = sext i32 %16 to i64
  %20 = add nsw i64 %19, -1
  %21 = mul nsw i64 %20, 365
  %22 = call noundef i64 @_ZN6icu_779ClockMath16floorDivideInt64Ell(i64 noundef %20, i64 noundef 4)
  %23 = add i64 %22, 1721423
  %24 = add i64 %23, %21
  %25 = load i32, ptr %6, align 4, !tbaa !32
  %26 = getelementptr inbounds nuw i8, ptr %0, i64 216
  %27 = load i32, ptr %26, align 8, !tbaa !22
  %28 = icmp sge i32 %25, %27
  %29 = zext i1 %28 to i8
  %30 = getelementptr inbounds nuw i8, ptr %0, i64 220
  store i8 %29, ptr %30, align 4, !tbaa !23
  %31 = getelementptr inbounds nuw i8, ptr %0, i64 221
  %32 = load i8, ptr %31, align 1, !tbaa !24
  %.not19 = icmp eq i8 %32, 0
  br i1 %.not19, label %36, label %33

33:                                               ; preds = %15
  %34 = xor i1 %28, true
  %35 = zext i1 %34 to i8
  store i8 %35, ptr %30, align 4, !tbaa !23
  br label %36

36:                                               ; preds = %33, %15
  %37 = phi i8 [ %35, %33 ], [ %29, %15 ]
  %.not20 = icmp eq i8 %37, 0
  br i1 %.not20, label %54, label %38

38:                                               ; preds = %36
  br i1 %18, label %44, label %39

39:                                               ; preds = %38
  %40 = srem i32 %25, 100
  %.not21 = icmp eq i32 %40, 0
  br i1 %.not21, label %41, label %44

41:                                               ; preds = %39
  %42 = srem i32 %25, 400
  %43 = icmp ne i32 %42, 0
  br label %44

44:                                               ; preds = %39, %41, %38
  %45 = phi i1 [ true, %38 ], [ false, %39 ], [ %43, %41 ]
  %46 = sext i32 %25 to i64
  %47 = add nsw i64 %46, -1
  %48 = call noundef i64 @_ZN6icu_779ClockMath16floorDivideInt64Ell(i64 noundef %47, i64 noundef 400)
  %49 = call noundef i64 @_ZN6icu_779ClockMath16floorDivideInt64Ell(i64 noundef %47, i64 noundef 100)
  %50 = sub nsw i64 %48, %49
  %51 = shl i64 %50, 32
  %sext = add i64 %51, 8589934592
  %52 = ashr exact i64 %sext, 32
  %53 = add nsw i64 %52, %24
  br label %54

54:                                               ; preds = %44, %36
  %.016 = phi i1 [ %45, %44 ], [ %18, %36 ]
  %.014 = phi i64 [ %53, %44 ], [ %24, %36 ]
  %55 = load i32, ptr %7, align 4, !tbaa !32
  %.not22 = icmp eq i32 %55, 0
  br i1 %.not22, label %63, label %56

56:                                               ; preds = %54
  %57 = sext i32 %55 to i64
  %58 = getelementptr inbounds [12 x i16], ptr @_ZL12kLeapNumDays, i64 0, i64 %57
  %59 = getelementptr inbounds [12 x i16], ptr @_ZL8kNumDays, i64 0, i64 %57
  %.in = select i1 %.016, ptr %59, ptr %58
  %60 = load i16, ptr %.in, align 2, !tbaa !31
  %61 = sext i16 %60 to i64
  %62 = add nsw i64 %.014, %61
  br label %63

63:                                               ; preds = %14, %56, %54, %5
  %.0 = phi i64 [ 0, %5 ], [ 0, %14 ], [ %62, %56 ], [ %.014, %54 ]
  ret i64 %.0
}